; Function Attrs: nounwind uwtable
define void @lv_mem_init() local_unnamed_addr #0 {
  %1 = tail call ptr @lv_tlsf_create_with_pool(ptr noundef nonnull @lv_mem_init.work_mem_int, i64 noundef 65536) #4
  store ptr %1, ptr getelementptr inbounds nuw (i8, ptr @lv_global, i64 784), align 8, !tbaa !3
  tail call void @lv_ll_init(ptr noundef nonnull getelementptr inbounds nuw (i8, ptr @lv_global, i64 808), i32 noundef 8) #4
  %2 = tail call ptr @lv_ll_ins_tail(ptr noundef nonnull getelementptr inbounds nuw (i8, ptr @lv_global, i64 808)) #4
  %.not = icmp eq ptr %2, null
  br i1 %.not, label %.preheader, label %3

.preheader:                                       ; preds = %0, %.preheader
  br label %.preheader

3:                                                ; preds = %0
  %4 = load ptr, ptr getelementptr inbounds nuw (i8, ptr @lv_global, i64 784), align 8, !tbaa !3
  %5 = tail call ptr @lv_tlsf_get_pool(ptr noundef %4) #4
  store ptr %5, ptr %2, align 8, !tbaa !30
  ret void
}